target datalayout = "e-m:e-p270:32:32-p271:32:32-p272:64:64-i64:64-i128:128-f80:128-n8:16:32:64-S128"
target triple = "x86_64-pc-linux-gnu"

%"class.ncnn::ConvolutionDepthWise_x86" = type { %"class.ncnn::ConvolutionDepthWise", ptr, %"class.std::vector.8", %"class.ncnn::Mat" }
%"class.ncnn::ConvolutionDepthWise" = type { %"class.ncnn::Layer", i32, i32, i32, i32, i32, i32, i32, i32, i32, i32, i32, float, i32, i32, i32, i32, i32, %"class.ncnn::Mat", i32, %"class.ncnn::Mat", %"class.ncnn::Mat", %"class.ncnn::Mat", %"class.ncnn::Mat", %"class.ncnn::Mat" }
%"class.ncnn::Layer" = type { ptr, i8, i8, i8, i8, i8, i8, i8, i8, i8, i8, i8, i8, i8, i8, i8, i8, i8, i8, i8, i8, i32, ptr, i32, %"class.std::__cxx11::basic_string", %"class.std::__cxx11::basic_string", %"class.std::vector", %"class.std::vector", %"class.std::vector.3", %"class.std::vector.3" }
%"class.std::__cxx11::basic_string" = type { %"struct.std::__cxx11::basic_string<char>::_Alloc_hider", i64, %union.anon }
%"struct.std::__cxx11::basic_string<char>::_Alloc_hider" = type { ptr }
%union.anon = type { i64, [8 x i8] }
%"class.std::vector" = type { %"struct.std::_Vector_base" }
%"struct.std::_Vector_base" = type { %"struct.std::_Vector_base<int, std::allocator<int>>::_Vector_impl" }
%"struct.std::_Vector_base<int, std::allocator<int>>::_Vector_impl" = type { %"struct.std::_Vector_base<int, std::allocator<int>>::_Vector_impl_data" }
%"struct.std::_Vector_base<int, std::allocator<int>>::_Vector_impl_data" = type { ptr, ptr, ptr }
%"class.std::vector.3" = type { %"struct.std::_Vector_base.4" }
%"struct.std::_Vector_base.4" = type { %"struct.std::_Vector_base<ncnn::Mat, std::allocator<ncnn::Mat>>::_Vector_impl" }
%"struct.std::_Vector_base<ncnn::Mat, std::allocator<ncnn::Mat>>::_Vector_impl" = type { %"struct.std::_Vector_base<ncnn::Mat, std::allocator<ncnn::Mat>>::_Vector_impl_data" }
%"struct.std::_Vector_base<ncnn::Mat, std::allocator<ncnn::Mat>>::_Vector_impl_data" = type { ptr, ptr, ptr }
%"class.std::vector.8" = type { %"struct.std::_Vector_base.9" }
%"struct.std::_Vector_base.9" = type { %"struct.std::_Vector_base<ncnn::Layer *, std::allocator<ncnn::Layer *>>::_Vector_impl" }
%"struct.std::_Vector_base<ncnn::Layer *, std::allocator<ncnn::Layer *>>::_Vector_impl" = type { %"struct.std::_Vector_base<ncnn::Layer *, std::allocator<ncnn::Layer *>>::_Vector_impl_data" }
%"struct.std::_Vector_base<ncnn::Layer *, std::allocator<ncnn::Layer *>>::_Vector_impl_data" = type { ptr, ptr, ptr }
%"class.ncnn::Mat" = type { ptr, ptr, i64, i32, ptr, i32, i32, i32, i32, i32, i64 }

; Function Attrs: mustprogress nounwind uwtable
define linkonce_odr hidden void @_ZNSt12_Destroy_auxILb1EE9__destroyIPPN4ncnn5LayerEEEvT_S6_(ptr noundef %0, ptr noundef %1) #3 comdat align 2 {
  %3 = alloca ptr, align 8
  %4 = alloca ptr, align 8
  store ptr %0, ptr %3, align 8, !tbaa !115
  store ptr %1, ptr %4, align 8, !tbaa !115
  ret void
}

; Function Attrs: inlinehint mustprogress uwtable
define linkonce_odr hidden void @_ZSt8_DestroyIPPN4ncnn5LayerEEvT_S4_(ptr noundef %0, ptr noundef %1) #5 comdat {
  %3 = alloca ptr, align 8
  %4 = alloca ptr, align 8
  store ptr %0, ptr %3, align 8, !tbaa !115
  store ptr %1, ptr %4, align 8, !tbaa !115
  %5 = load ptr, ptr %3, align 8, !tbaa !115
  %6 = load ptr, ptr %4, align 8, !tbaa !115
  call void @_ZNSt12_Destroy_auxILb1EE9__destroyIPPN4ncnn5LayerEEEvT_S6_(ptr noundef %5, ptr noundef %6)
  ret void
}

; Function Attrs: noinline noreturn nounwind uwtable
define linkonce_odr hidden void @__clang_call_terminate(ptr noundef %0) #6 comdat {
  %2 = call ptr @__cxa_begin_catch(ptr %0) #16
  call void @_ZSt9terminatev() #22
  unreachable
}

; Function Attrs: inlinehint mustprogress uwtable
define linkonce_odr hidden void @_ZSt8_DestroyIPPN4ncnn5LayerES2_EvT_S4_RSaIT0_E(ptr noundef %0, ptr noundef %1, ptr noundef nonnull align 1 dereferenceable(1) %2) #5 comdat {
  %4 = alloca ptr, align 8
  %5 = alloca ptr, align 8
  %6 = alloca ptr, align 8
  store ptr %0, ptr %4, align 8, !tbaa !115
  store ptr %1, ptr %5, align 8, !tbaa !115
  store ptr %2, ptr %6, align 8, !tbaa !108
  %7 = load ptr, ptr %4, align 8, !tbaa !115
  %8 = load ptr, ptr %5, align 8, !tbaa !115
  call void @_ZSt8_DestroyIPPN4ncnn5LayerEEvT_S4_(ptr noundef %7, ptr noundef %8)
  ret void
}

; Function Attrs: mustprogress nounwind uwtable
define linkonce_odr hidden noundef nonnull align 1 dereferenceable(1) ptr @_ZNSt12_Vector_baseIPN4ncnn5LayerESaIS2_EE19_M_get_Tp_allocatorEv(ptr noundef nonnull align 8 dereferenceable(24) %0) #3 comdat align 2 {
  %2 = alloca ptr, align 8
  store ptr %0, ptr %2, align 8, !tbaa !104
  %3 = load ptr, ptr %2, align 8
  %4 = getelementptr inbounds nuw %"struct.std::_Vector_base.9", ptr %3, i32 0, i32 0
  ret ptr %4
}

; Function Attrs: mustprogress nounwind uwtable
define linkonce_odr hidden void @_ZNSt6vectorIPN4ncnn5LayerESaIS2_EE15_M_erase_at_endEPS2_(ptr noundef nonnull align 8 dereferenceable(24) %0, ptr noundef %1) #3 comdat align 2 personality ptr @__gxx_personality_v0 {
  %3 = alloca ptr, align 8
  %4 = alloca ptr, align 8
  %5 = alloca i64, align 8
  store ptr %0, ptr %3, align 8, !tbaa !93
  store ptr %1, ptr %4, align 8, !tbaa !115
  %6 = load ptr, ptr %3, align 8
  call void @llvm.lifetime.start.p0(i64 8, ptr %5) #16
  %7 = getelementptr inbounds nuw %"struct.std::_Vector_base.9", ptr %6, i32 0, i32 0
  %8 = getelementptr inbounds nuw %"struct.std::_Vector_base<ncnn::Layer *, std::allocator<ncnn::Layer *>>::_Vector_impl_data", ptr %7, i32 0, i32 1
  %9 = load ptr, ptr %8, align 8, !tbaa !101
  %10 = load ptr, ptr %4, align 8, !tbaa !115
  %11 = ptrtoint ptr %9 to i64
  %12 = ptrtoint ptr %10 to i64
  %13 = sub i64 %11, %12
  %14 = sdiv exact i64 %13, 8
  store i64 %14, ptr %5, align 8, !tbaa !80
  %15 = load i64, ptr %5, align 8, !tbaa !80
  %16 = icmp ne i64 %15, 0
  br i1 %16, label %17, label %27

17:                                               ; preds = %2
  %18 = load ptr, ptr %4, align 8, !tbaa !115
  %19 = getelementptr inbounds nuw %"struct.std::_Vector_base.9", ptr %6, i32 0, i32 0
  %20 = getelementptr inbounds nuw %"struct.std::_Vector_base<ncnn::Layer *, std::allocator<ncnn::Layer *>>::_Vector_impl_data", ptr %19, i32 0, i32 1
  %21 = load ptr, ptr %20, align 8, !tbaa !101
  %22 = call noundef nonnull align 1 dereferenceable(1) ptr @_ZNSt12_Vector_baseIPN4ncnn5LayerESaIS2_EE19_M_get_Tp_allocatorEv(ptr noundef nonnull align 8 dereferenceable(24) %6) #16
  invoke void @_ZSt8_DestroyIPPN4ncnn5LayerES2_EvT_S4_RSaIT0_E(ptr noundef %18, ptr noundef %21, ptr noundef nonnull align 1 dereferenceable(1) %22)
          to label %23 unwind label %28

23:                                               ; preds = %17
  %24 = load ptr, ptr %4, align 8, !tbaa !115
  %25 = getelementptr inbounds nuw %"struct.std::_Vector_base.9", ptr %6, i32 0, i32 0
  %26 = getelementptr inbounds nuw %"struct.std::_Vector_base<ncnn::Layer *, std::allocator<ncnn::Layer *>>::_Vector_impl_data", ptr %25, i32 0, i32 1
  store ptr %24, ptr %26, align 8, !tbaa !101
  br label %27

27:                                               ; preds = %23, %2
  call void @llvm.lifetime.end.p0(i64 8, ptr %5) #16
  ret void

28:                                               ; preds = %17
  %29 = landingpad { ptr, i32 }
          catch ptr null
  %30 = extractvalue { ptr, i32 } %29, 0
  call void @__clang_call_terminate(ptr %30) #22
  unreachable
}

; Function Attrs: mustprogress nounwind uwtable
define linkonce_odr hidden void @_ZNSt6vectorIPN4ncnn5LayerESaIS2_EE5clearEv(ptr noundef nonnull align 8 dereferenceable(24) %0) #3 comdat align 2 {
  %2 = alloca ptr, align 8
  store ptr %0, ptr %2, align 8, !tbaa !93
  %3 = load ptr, ptr %2, align 8
  %4 = getelementptr inbounds nuw %"struct.std::_Vector_base.9", ptr %3, i32 0, i32 0
  %5 = getelementptr inbounds nuw %"struct.std::_Vector_base<ncnn::Layer *, std::allocator<ncnn::Layer *>>::_Vector_impl_data", ptr %4, i32 0, i32 0
  %6 = load ptr, ptr %5, align 8, !tbaa !100
  call void @_ZNSt6vectorIPN4ncnn5LayerESaIS2_EE15_M_erase_at_endEPS2_(ptr noundef nonnull align 8 dereferenceable(24) %3, ptr noundef %6) #16
  ret void
}

; Function Attrs: mustprogress nounwind uwtable
define linkonce_odr hidden noundef nonnull align 8 dereferenceable(8) ptr @_ZNSt6vectorIPN4ncnn5LayerESaIS2_EEixEm(ptr noundef nonnull align 8 dereferenceable(24) %0, i64 noundef %1) #3 comdat align 2 {
  %3 = alloca ptr, align 8
  %4 = alloca i64, align 8
  store ptr %0, ptr %3, align 8, !tbaa !93
  store i64 %1, ptr %4, align 8, !tbaa !80
  %5 = load ptr, ptr %3, align 8
  %6 = getelementptr inbounds nuw %"struct.std::_Vector_base.9", ptr %5, i32 0, i32 0
  %7 = getelementptr inbounds nuw %"struct.std::_Vector_base<ncnn::Layer *, std::allocator<ncnn::Layer *>>::_Vector_impl_data", ptr %6, i32 0, i32 0
  %8 = load ptr, ptr %7, align 8, !tbaa !100
  %9 = load i64, ptr %4, align 8, !tbaa !80
  %10 = getelementptr inbounds nuw ptr, ptr %8, i64 %9
  ret ptr %10
}

; Function Attrs: mustprogress nounwind uwtable
define linkonce_odr hidden noundef i64 @_ZNKSt6vectorIPN4ncnn5LayerESaIS2_EE4sizeEv(ptr noundef nonnull align 8 dereferenceable(24) %0) #3 comdat align 2 {
  %2 = alloca ptr, align 8
  store ptr %0, ptr %2, align 8, !tbaa !93
  %3 = load ptr, ptr %2, align 8
  %4 = getelementptr inbounds nuw %"struct.std::_Vector_base.9", ptr %3, i32 0, i32 0
  %5 = getelementptr inbounds nuw %"struct.std::_Vector_base<ncnn::Layer *, std::allocator<ncnn::Layer *>>::_Vector_impl_data", ptr %4, i32 0, i32 1
  %6 = load ptr, ptr %5, align 8, !tbaa !101
  %7 = getelementptr inbounds nuw %"struct.std::_Vector_base.9", ptr %3, i32 0, i32 0
  %8 = getelementptr inbounds nuw %"struct.std::_Vector_base<ncnn::Layer *, std::allocator<ncnn::Layer *>>::_Vector_impl_data", ptr %7, i32 0, i32 0
  %9 = load ptr, ptr %8, align 8, !tbaa !100
  %10 = ptrtoint ptr %6 to i64
  %11 = ptrtoint ptr %9 to i64
  %12 = sub i64 %10, %11
  %13 = sdiv exact i64 %12, 8
  ret i64 %13
}

; Function Attrs: mustprogress uwtable
define hidden noundef i32 @_ZN4ncnn24ConvolutionDepthWise_x8616destroy_pipelineERKNS_6OptionE(ptr noundef nonnull align 8 dereferenceable(824) %0, ptr noundef nonnull align 8 dereferenceable(64) %1) unnamed_addr #2 align 2 {
  %3 = alloca ptr, align 8
  %4 = alloca ptr, align 8
  %5 = alloca i32, align 4
  store ptr %0, ptr %3, align 8, !tbaa !4
  store ptr %1, ptr %4, align 8, !tbaa !11
  %6 = load ptr, ptr %3, align 8
  %7 = getelementptr inbounds nuw %"class.ncnn::ConvolutionDepthWise_x86", ptr %6, i32 0, i32 1
  %8 = load ptr, ptr %7, align 8, !tbaa !36
  %9 = icmp ne ptr %8, null
  br i1 %9, label %10, label %27

10:                                               ; preds = %2
  %11 = getelementptr inbounds nuw %"class.ncnn::ConvolutionDepthWise_x86", ptr %6, i32 0, i32 1
  %12 = load ptr, ptr %11, align 8, !tbaa !36
  %13 = load ptr, ptr %4, align 8, !tbaa !11
  %14 = load ptr, ptr %12, align 8, !tbaa !9
  %15 = getelementptr inbounds ptr, ptr %14, i64 5
  %16 = load ptr, ptr %15, align 8
  %17 = call noundef i32 %16(ptr noundef nonnull align 8 dereferenceable(208) %12, ptr noundef nonnull align 8 dereferenceable(64) %13)
  %18 = getelementptr inbounds nuw %"class.ncnn::ConvolutionDepthWise_x86", ptr %6, i32 0, i32 1
  %19 = load ptr, ptr %18, align 8, !tbaa !36
  %20 = icmp eq ptr %19, null
  br i1 %20, label %25, label %21

21:                                               ; preds = %10
  %22 = load ptr, ptr %19, align 8, !tbaa !9
  %23 = getelementptr inbounds ptr, ptr %22, i64 1
  %24 = load ptr, ptr %23, align 8
  call void %24(ptr noundef nonnull align 8 dereferenceable(208) %19) #16
  br label %25

25:                                               ; preds = %21, %10
  %26 = getelementptr inbounds nuw %"class.ncnn::ConvolutionDepthWise_x86", ptr %6, i32 0, i32 1
  store ptr null, ptr %26, align 8, !tbaa !36
  br label %27

27:                                               ; preds = %25, %2
  call void @llvm.lifetime.start.p0(i64 4, ptr %5) #16
  store i32 0, ptr %5, align 4, !tbaa !52
  br label %28

28:                                               ; preds = %57, %27
  %29 = load i32, ptr %5, align 4, !tbaa !52
  %30 = getelementptr inbounds nuw %"class.ncnn::ConvolutionDepthWise_x86", ptr %6, i32 0, i32 2
  %31 = call noundef i64 @_ZNKSt6vectorIPN4ncnn5LayerESaIS2_EE4sizeEv(ptr noundef nonnull align 8 dereferenceable(24) %30) #16
  %32 = trunc i64 %31 to i32
  %33 = icmp slt i32 %29, %32
  br i1 %33, label %35, label %34

34:                                               ; preds = %28
  call void @llvm.lifetime.end.p0(i64 4, ptr %5) #16
  br label %60

35:                                               ; preds = %28
  %36 = getelementptr inbounds nuw %"class.ncnn::ConvolutionDepthWise_x86", ptr %6, i32 0, i32 2
  %37 = load i32, ptr %5, align 4, !tbaa !52
  %38 = sext i32 %37 to i64
  %39 = call noundef nonnull align 8 dereferenceable(8) ptr @_ZNSt6vectorIPN4ncnn5LayerESaIS2_EEixEm(ptr noundef nonnull align 8 dereferenceable(24) %36, i64 noundef %38) #16
  %40 = load ptr, ptr %39, align 8, !tbaa !62
  %41 = load ptr, ptr %4, align 8, !tbaa !11
  %42 = load ptr, ptr %40, align 8, !tbaa !9
  %43 = getelementptr inbounds ptr, ptr %42, i64 5
  %44 = load ptr, ptr %43, align 8
  %45 = call noundef i32 %44(ptr noundef nonnull align 8 dereferenceable(208) %40, ptr noundef nonnull align 8 dereferenceable(64) %41)
  %46 = getelementptr inbounds nuw %"class.ncnn::ConvolutionDepthWise_x86", ptr %6, i32 0, i32 2
  %47 = load i32, ptr %5, align 4, !tbaa !52
  %48 = sext i32 %47 to i64
  %49 = call noundef nonnull align 8 dereferenceable(8) ptr @_ZNSt6vectorIPN4ncnn5LayerESaIS2_EEixEm(ptr noundef nonnull align 8 dereferenceable(24) %46, i64 noundef %48) #16
  %50 = load ptr, ptr %49, align 8, !tbaa !62
  %51 = icmp eq ptr %50, null
  br i1 %51, label %56, label %52

52:                                               ; preds = %35
  %53 = load ptr, ptr %50, align 8, !tbaa !9
  %54 = getelementptr inbounds ptr, ptr %53, i64 1
  %55 = load ptr, ptr %54, align 8
  call void %55(ptr noundef nonnull align 8 dereferenceable(208) %50) #16
  br label %56

56:                                               ; preds = %52, %35
  br label %57

57:                                               ; preds = %56
  %58 = load i32, ptr %5, align 4, !tbaa !52
  %59 = add nsw i32 %58, 1
  store i32 %59, ptr %5, align 4, !tbaa !52
  br label %28, !llvm.loop !63

60:                                               ; preds = %34
  %61 = getelementptr inbounds nuw %"class.ncnn::ConvolutionDepthWise_x86", ptr %6, i32 0, i32 2
  call void @_ZNSt6vectorIPN4ncnn5LayerESaIS2_EE5clearEv(ptr noundef nonnull align 8 dereferenceable(24) %61) #16
  ret i32 0
}